; Function Attrs: mustprogress nounwind uwtable
define internal fastcc void @_ZN11flatbuffers12_GLOBAL__N_112NsDefinitionD2Ev(ptr noundef nonnull align 8 dereferenceable(152) %this) unnamed_addr #6 align 2 personality ptr @__gxx_personality_v0 {
entry:
  %definitions = getelementptr inbounds i8, ptr %this, i64 104
  %_M_parent.i.i.i.i = getelementptr inbounds i8, ptr %this, i64 120
  %0 = load ptr, ptr %_M_parent.i.i.i.i, align 8
  invoke void @_ZNSt8_Rb_treeINSt7__cxx1112basic_stringIcSt11char_traitsIcESaIcEEESt4pairIKS5_PKN11flatbuffers10DefinitionEESt10_Select1stISC_ESt4lessIS5_ESaISC_EE8_M_eraseEPSt13_Rb_tree_nodeISC_E(ptr noundef nonnull align 8 dereferenceable(48) %definitions, ptr noundef %0)
          to label %_ZNSt3mapINSt7__cxx1112basic_stringIcSt11char_traitsIcESaIcEEEPKN11flatbuffers10DefinitionESt4lessIS5_ESaISt4pairIKS5_S9_EEED2Ev.exit unwind label %terminate.lpad.i.i

terminate.lpad.i.i:                               ; preds = %entry
  %1 = landingpad { ptr, i32 }
          catch ptr null
  %2 = extractvalue { ptr, i32 } %1, 0
  tail call void @__clang_call_terminate(ptr %2) #24
  unreachable

_ZNSt3mapINSt7__cxx1112basic_stringIcSt11char_traitsIcESaIcEEEPKN11flatbuffers10DefinitionESt4lessIS5_ESaISt4pairIKS5_S9_EEED2Ev.exit: ; preds = %entry
  %symbolic_name = getelementptr inbounds i8, ptr %this, i64 64
  tail call void @_ZNSt7__cxx1112basic_stringIcSt11char_traitsIcESaIcEED1Ev(ptr noundef nonnull align 8 dereferenceable(32) %symbolic_name) #21
  %filepath = getelementptr inbounds i8, ptr %this, i64 32
  tail call void @_ZNSt7__cxx1112basic_stringIcSt11char_traitsIcESaIcEED1Ev(ptr noundef nonnull align 8 dereferenceable(32) %filepath) #21
  tail call void @_ZNSt7__cxx1112basic_stringIcSt11char_traitsIcESaIcEED1Ev(ptr noundef nonnull align 8 dereferenceable(32) %this) #21
  ret void
}